target datalayout = "e-m:e-p270:32:32-p271:32:32-p272:64:64-i64:64-i128:128-f80:128-n8:16:32:64-S128"
target triple = "x86_64-pc-linux-gnu"

%"class.llvm::SmallVectorBase" = type { ptr, i32, i32 }
%"class.llvm::SetVector" = type { %"class.llvm::DenseSet", %"class.llvm::SmallVector.479" }
%"class.llvm::DenseSet" = type { %"class.llvm::detail::DenseSetImpl" }
%"class.llvm::detail::DenseSetImpl" = type { %"class.llvm::DenseMap.476" }
%"class.llvm::DenseMap.476" = type <{ ptr, i32, i32, i32, [4 x i8] }>
%"class.llvm::SmallVector.479" = type { %"class.llvm::SmallVectorImpl.480" }
%"class.llvm::SmallVectorImpl.480" = type { %"class.llvm::SmallVectorTemplateBase.481" }
%"class.llvm::SmallVectorTemplateBase.481" = type { %"class.llvm::SmallVectorTemplateCommon.482" }
%"class.llvm::SmallVectorTemplateCommon.482" = type { %"class.llvm::SmallVectorBase" }
%"class.llvm::NodeSet" = type <{ %"class.llvm::SetVector", i8, [3 x i8], i32, i32, i32, i32, [4 x i8], ptr, i32, [4 x i8] }>

; Function Attrs: mustprogress nounwind uwtable
define linkonce_odr hidden noundef zeroext i1 @_ZNK4llvm9SetVectorIPNS_5SUnitENS_11SmallVectorIS2_Lj0EEENS_8DenseSetIS2_NS_12DenseMapInfoIS2_vEEEELj0EE5emptyEv(ptr noundef nonnull align 8 dereferenceable(40) %0) #1 comdat align 2 {
  %2 = alloca ptr, align 8
  store ptr %0, ptr %2, align 8
  %3 = load ptr, ptr %2, align 8
  %4 = getelementptr inbounds nuw %"class.llvm::SetVector", ptr %3, i32 0, i32 1
  %5 = call noundef zeroext i1 @_ZNK4llvm15SmallVectorBaseIjE5emptyEv(ptr noundef nonnull align 8 dereferenceable(16) %4)
  ret i1 %5
}

; Function Attrs: mustprogress nounwind uwtable
define linkonce_odr hidden void @_ZN4llvm7NodeSet9setRecMIIEj(ptr noundef nonnull align 8 dereferenceable(76) %0, i32 noundef %1) #1 comdat align 2 {
  %3 = alloca ptr, align 8
  %4 = alloca i32, align 4
  store ptr %0, ptr %3, align 8
  store i32 %1, ptr %4, align 4
  %5 = load ptr, ptr %3, align 8
  %6 = load i32, ptr %4, align 4
  %7 = getelementptr inbounds nuw %"class.llvm::NodeSet", ptr %5, i32 0, i32 3
  store i32 %6, ptr %7, align 4
  ret void
}

; Function Attrs: mustprogress nounwind uwtable
define linkonce_odr hidden noundef i32 @_ZN4llvm7NodeSet10getLatencyEv(ptr noundef nonnull align 8 dereferenceable(76) %0) #1 comdat align 2 {
  %2 = alloca ptr, align 8
  store ptr %0, ptr %2, align 8
  %3 = load ptr, ptr %2, align 8
  %4 = getelementptr inbounds nuw %"class.llvm::NodeSet", ptr %3, i32 0, i32 9
  %5 = load i32, ptr %4, align 8
  ret i32 %5
}

; Function Attrs: mustprogress nounwind uwtable
define linkonce_odr hidden noundef zeroext i1 @_ZNK4llvm7NodeSet5emptyEv(ptr noundef nonnull align 8 dereferenceable(76) %0) #1 comdat align 2 {
  %2 = alloca ptr, align 8
  store ptr %0, ptr %2, align 8
  %3 = load ptr, ptr %2, align 8
  %4 = getelementptr inbounds nuw %"class.llvm::NodeSet", ptr %3, i32 0, i32 0
  %5 = call noundef zeroext i1 @_ZNK4llvm9SetVectorIPNS_5SUnitENS_11SmallVectorIS2_Lj0EEENS_8DenseSetIS2_NS_12DenseMapInfoIS2_vEEEELj0EE5emptyEv(ptr noundef nonnull align 8 dereferenceable(40) %4)
  ret i1 %5
}

; Function Attrs: mustprogress nounwind uwtable
define linkonce_odr hidden noundef ptr @_ZN4llvm25SmallVectorTemplateCommonINS_7NodeSetEvE3endEv(ptr noundef nonnull align 8 dereferenceable(16) %0) #1 comdat align 2 {
  %2 = alloca ptr, align 8
  store ptr %0, ptr %2, align 8
  %3 = load ptr, ptr %2, align 8
  %4 = call noundef ptr @_ZN4llvm25SmallVectorTemplateCommonINS_7NodeSetEvE5beginEv(ptr noundef nonnull align 8 dereferenceable(16) %3)
  %5 = call noundef i64 @_ZNK4llvm15SmallVectorBaseIjE4sizeEv(ptr noundef nonnull align 8 dereferenceable(16) %3)
  %6 = getelementptr inbounds %"class.llvm::NodeSet", ptr %4, i64 %5
  ret ptr %6
}

; Function Attrs: mustprogress nounwind uwtable
define linkonce_odr hidden noundef ptr @_ZN4llvm25SmallVectorTemplateCommonINS_7NodeSetEvE5beginEv(ptr noundef nonnull align 8 dereferenceable(16) %0) #1 comdat align 2 {
  %2 = alloca ptr, align 8
  store ptr %0, ptr %2, align 8
  %3 = load ptr, ptr %2, align 8
  %4 = getelementptr inbounds nuw %"class.llvm::SmallVectorBase", ptr %3, i32 0, i32 0
  %5 = load ptr, ptr %4, align 8
  ret ptr %5
}

; Function Attrs: mustprogress nounwind uwtable
define dso_local noundef i32 @_ZN4llvm17SwingSchedulerDAG15calculateRecMIIERNS_11SmallVectorINS_7NodeSetELj8EEE(ptr noundef nonnull align 8 dereferenceable(3240) %0, ptr noundef nonnull align 8 dereferenceable(656) %1) #1 align 2 {
  %3 = alloca ptr, align 8
  %4 = alloca ptr, align 8
  %5 = alloca i32, align 4
  %6 = alloca ptr, align 8
  %7 = alloca ptr, align 8
  %8 = alloca ptr, align 8
  %9 = alloca ptr, align 8
  %10 = alloca i32, align 4
  %11 = alloca i32, align 4
  %12 = alloca i32, align 4
  store ptr %0, ptr %3, align 8
  store ptr %1, ptr %4, align 8
  store i32 0, ptr %5, align 4
  %13 = load ptr, ptr %4, align 8
  store ptr %13, ptr %6, align 8
  %14 = load ptr, ptr %6, align 8
  %15 = call noundef ptr @_ZN4llvm25SmallVectorTemplateCommonINS_7NodeSetEvE5beginEv(ptr noundef nonnull align 8 dereferenceable(16) %14)
  store ptr %15, ptr %7, align 8
  %16 = load ptr, ptr %6, align 8
  %17 = call noundef ptr @_ZN4llvm25SmallVectorTemplateCommonINS_7NodeSetEvE3endEv(ptr noundef nonnull align 8 dereferenceable(16) %16)
  store ptr %17, ptr %8, align 8
  br label %18

18:                                               ; preds = %44, %2
  %19 = load ptr, ptr %7, align 8
  %20 = load ptr, ptr %8, align 8
  %21 = icmp ne ptr %19, %20
  br i1 %21, label %22, label %47

22:                                               ; preds = %18
  %23 = load ptr, ptr %7, align 8
  store ptr %23, ptr %9, align 8
  %24 = load ptr, ptr %9, align 8
  %25 = call noundef zeroext i1 @_ZNK4llvm7NodeSet5emptyEv(ptr noundef nonnull align 8 dereferenceable(76) %24)
  br i1 %25, label %26, label %27

26:                                               ; preds = %22
  br label %44

27:                                               ; preds = %22
  %28 = load ptr, ptr %9, align 8
  %29 = call noundef i32 @_ZN4llvm7NodeSet10getLatencyEv(ptr noundef nonnull align 8 dereferenceable(76) %28)
  store i32 %29, ptr %10, align 4
  store i32 1, ptr %11, align 4
  %30 = load i32, ptr %10, align 4
  %31 = load i32, ptr %11, align 4
  %32 = add i32 %30, %31
  %33 = sub i32 %32, 1
  %34 = load i32, ptr %11, align 4
  %35 = udiv i32 %33, %34
  store i32 %35, ptr %12, align 4
  %36 = load ptr, ptr %9, align 8
  %37 = load i32, ptr %12, align 4
  call void @_ZN4llvm7NodeSet9setRecMIIEj(ptr noundef nonnull align 8 dereferenceable(76) %36, i32 noundef %37)
  %38 = load i32, ptr %12, align 4
  %39 = load i32, ptr %5, align 4
  %40 = icmp ugt i32 %38, %39
  br i1 %40, label %41, label %43

41:                                               ; preds = %27
  %42 = load i32, ptr %12, align 4
  store i32 %42, ptr %5, align 4
  br label %43

43:                                               ; preds = %41, %27
  br label %44

44:                                               ; preds = %43, %26
  %45 = load ptr, ptr %7, align 8
  %46 = getelementptr inbounds %"class.llvm::NodeSet", ptr %45, i32 1
  store ptr %46, ptr %7, align 8
  br label %18

47:                                               ; preds = %18
  %48 = load i32, ptr %5, align 4
  ret i32 %48
}