; Function Attrs: mustprogress nounwind uwtable
define dso_local noundef i32 @_ZN4llvm17SwingSchedulerDAG15calculateRecMIIERNS_11SmallVectorINS_7NodeSetELj8EEE(ptr nocapture noundef nonnull readnone align 8 dereferenceable(3240) %0, ptr noundef nonnull align 8 dereferenceable(656) %1) local_unnamed_addr #0 align 2 {
  %3 = load ptr, ptr %1, align 8
  %4 = tail call noundef i64 @_ZNK4llvm15SmallVectorBaseIjE4sizeEv(ptr noundef nonnull align 8 dereferenceable(16) %1) #25
  %5 = getelementptr inbounds %"class.llvm::NodeSet", ptr %3, i64 %4
  %.not19 = icmp eq i64 %4, 0
  br i1 %.not19, label %._crit_edge, label %.lr.ph

.lr.ph:                                           ; preds = %2, %12
  %.021 = phi i32 [ %.1, %12 ], [ 0, %2 ]
  %.01720 = phi ptr [ %13, %12 ], [ %3, %2 ]
  %6 = getelementptr inbounds nuw i8, ptr %.01720, i64 24
  %7 = tail call noundef zeroext i1 @_ZNK4llvm15SmallVectorBaseIjE5emptyEv(ptr noundef nonnull align 8 dereferenceable(16) %6) #25
  br i1 %7, label %12, label %8

8:                                                ; preds = %.lr.ph
  %9 = getelementptr inbounds nuw i8, ptr %.01720, i64 72
  %10 = load i32, ptr %9, align 8
  %11 = getelementptr inbounds nuw i8, ptr %.01720, i64 44
  store i32 %10, ptr %11, align 4
  %spec.select = tail call i32 @llvm.umax.i32(i32 %10, i32 %.021)
  br label %12

12:                                               ; preds = %8, %.lr.ph
  %.1 = phi i32 [ %.021, %.lr.ph ], [ %spec.select, %8 ]
  %13 = getelementptr inbounds i8, ptr %.01720, i64 80
  %.not = icmp eq ptr %13, %5
  br i1 %.not, label %._crit_edge, label %.lr.ph

._crit_edge:                                      ; preds = %12, %2
  %.0.lcssa = phi i32 [ 0, %2 ], [ %.1, %12 ]
  ret i32 %.0.lcssa
}